Certificate:
    Data:
        Version: 3 (0x2)
        Serial Number: 2 (0x2)
        Signature Algorithm: sha256WithRSAEncryption
        Issuer: DC=fr, O=TLS-inferer GASP Inc, OU=TLS-inferer GASP Root CA, CN=TLS-inferer GASP Root CA
        Validity
            Not Before: Jul  6 00:12:07 2023 GMT
            Not After : Jul  5 00:12:07 2025 GMT
        Subject: DC=fr, O=TLS-inferer GASP Inc, OU=TLS-inferer GASP Root CA, CN=127.0.0.1
        Subject Public Key Info:
            Public Key Algorithm: rsaEncryption
                RSA Public-Key: (2048 bit)
                Modulus:
                    00:a3:c5:c3:96:29:c3:f5:2d:37:e1:5d:8f:8f:08:
                    87:c2:89:62:13:ab:d0:2d:5d:1a:73:97:d8:4d:5e:
                    e1:5f:4b:3a:4f:5c:48:a1:73:40:a4:11:30:35:0b:
                    27:57:97:c2:39:e8:7f:ba:40:c8:5c:4e:83:99:ab:
                    76:35:4c:da:79:ac:5b:93:0b:95:4e:56:e0:0d:e4:
                    43:ec:45:82:06:13:a2:fd:32:1c:59:0e:5a:cc:85:
                    04:2f:cb:03:f8:c8:09:80:2c:d5:df:fe:7a:2c:1e:
                    2d:66:3d:8e:6f:eb:08:f4:bd:8d:98:e6:df:ba:1c:
                    e1:64:58:3c:20:da:9c:3c:a2:72:cb:f3:75:1b:76:
                    02:78:bf:66:70:bf:90:1e:e8:80:e7:f8:e2:ba:8c:
                    a1:2b:b1:4a:a3:30:e8:57:01:1e:3f:82:09:51:5c:
                    63:53:b0:28:4a:18:2f:12:e1:97:45:94:06:89:57:
                    43:1a:f0:cc:2d:2d:c3:cd:38:02:90:65:6a:54:53:
                    14:68:9c:05:58:5b:33:8f:09:06:35:75:f6:2e:3e:
                    4d:a1:13:4f:01:db:c4:26:77:ee:c4:c7:6f:ea:41:
                    58:66:77:11:0b:25:90:09:4c:56:47:7f:ce:16:c9:
                    9e:78:fe:0d:79:05:8f:45:04:58:9f:3d:e0:3d:0d:
                    20:d3
                Exponent: 65537 (0x10001)
        X509v3 extensions:
            X509v3 Key Usage: critical
                Digital Signature, Key Encipherment
            X509v3 Basic Constraints: 
                CA:FALSE
            X509v3 Extended Key Usage: 
                TLS Web Server Authentication
            X509v3 Subject Key Identifier: 
                B9:A0:6E:E2:8B:EA:5D:26:56:01:34:84:D2:15:C7:73:7E:20:59:E2
            X509v3 Authority Key Identifier: 
                keyid:90:C5:09:F8:EE:ED:14:CC:2D:52:DE:A5:3F:E8:E6:77:16:AB:3E:1E

            X509v3 Subject Alternative Name: 
                IP Address:127.0.0.1
    Signature Algorithm: sha256WithRSAEncryption
         d8:ee:70:9d:ec:d2:15:07:e8:0f:b5:fb:4c:3f:fe:0e:a0:2d:
         35:d9:c9:4b:f2:76:7a:52:c5:e8:5e:a3:26:2b:85:12:3a:63:
         e9:27:d7:f0:32:23:4a:92:ac:ab:a6:00:a2:d4:3e:ba:a1:5b:
         4a:16:41:f2:b9:f8:78:22:d3:bf:7e:0c:aa:14:00:05:15:d2:
         35:94:f8:e1:8b:57:6e:d7:c9:55:5c:1a:a3:1f:a6:1c:21:78:
         75:9c:7a:d1:91:ce:c3:73:3d:90:b8:8a:2c:d8:00:5f:f1:e5:
         d6:7d:02:8d:47:57:17:83:93:f4:dd:41:01:2c:ff:14:f3:5e:
         cb:be:a4:c4:6d:bd:06:08:34:fc:5a:72:e5:b2:e1:c0:3b:e2:
         94:52:e7:fb:fa:ac:40:c5:45:a6:49:3f:67:ec:5e:18:f1:5b:
         2b:50:59:2b:9c:0a:03:b4:02:e0:65:84:ac:07:3a:72:3b:76:
         09:86:f6:4b:dc:44:e2:08:9d:ce:a5:90:1f:ad:b8:aa:90:6b:
         97:42:76:69:01:ee:55:b2:7c:f9:77:24:27:de:04:13:ad:3d:
         32:ce:03:17:f9:27:89:6c:be:38:76:95:e0:dd:b8:4f:b7:33:
         bd:79:15:19:07:76:ff:1a:e3:c9:cc:32:9b:1b:ba:1e:a2:4a:
         c1:e5:fe:90
-----BEGIN CERTIFICATE-----
MIID4zCCAsugAwIBAgIBAjANBgkqhkiG9w0BAQsFADB5MRIwEAYKCZImiZPyLGQB
GRYCZnIxHTAbBgNVBAoMFFRMUy1pbmZlcmVyIEdBU1AgSW5jMSEwHwYDVQQLDBhU
TFMtaW5mZXJlciBHQVNQIFJvb3QgQ0ExITAfBgNVBAMMGFRMUy1pbmZlcmVyIEdB
U1AgUm9vdCBDQTAeFw0yMzA3MDYwMDEyMDdaFw0yNTA3MDUwMDEyMDdaMGoxEjAQ
BgoJkiaJk/IsZAEZFgJmcjEdMBsGA1UECgwUVExTLWluZmVyZXIgR0FTUCBJbmMx
ITAfBgNVBAsMGFRMUy1pbmZlcmVyIEdBU1AgUm9vdCBDQTESMBAGA1UEAwwJMTI3
LjAuMC4xMIIBIjANBgkqhkiG9w0BAQEFAAOCAQ8AMIIBCgKCAQEAo8XDlinD9S03
4V2PjwiHwoliE6vQLV0ac5fYTV7hX0s6T1xIoXNApBEwNQsnV5fCOeh/ukDIXE6D
mat2NUzaeaxbkwuVTlbgDeRD7EWCBhOi/TIcWQ5azIUEL8sD+MgJgCzV3/56LB4t
Zj2Ob+sI9L2NmObfuhzhZFg8INqcPKJyy/N1G3YCeL9mcL+QHuiA5/jiuoyhK7FK
ozDoVwEeP4IJUVxjU7AoShgvEuGXRZQGiVdDGvDMLS3DzTgCkGVqVFMUaJwFWFsz
jwkGNXX2Lj5NoRNPAdvEJnfuxMdv6kFYZncRCyWQCUxWR3/OFsmeeP4NeQWPRQRY
nz3gPQ0g0wIDAQABo4GEMIGBMA4GA1UdDwEB/wQEAwIFoDAJBgNVHRMEAjAAMBMG
A1UdJQQMMAoGCCsGAQUFBwMBMB0GA1UdDgQWBBS5oG7ii+pdJlYBNITSFcdzfiBZ
4jAfBgNVHSMEGDAWgBSQxQn47u0UzC1S3qU/6OZ3Fqs+HjAPBgNVHREECDAGhwR/
AAABMA0GCSqGSIb3DQEBCwUAA4IBAQDY7nCd7NIVB+gPtftMP/4OoC012clL8nZ6
UsXoXqMmK4USOmPpJ9fwMiNKkqyrpgCi1D66oVtKFkHyufh4ItO/fgyqFAAFFdI1
lPjhi1du18lVXBqjH6YcIXh1nHrRkc7Dcz2QuIos2ABf8eXWfQKNR1cXg5P03UEB
LP8U817LvqTEbb0GCDT8WnLlsuHAO+KUUuf7+qxAxUWmST9n7F4Y8VsrUFkrnAoD
tALgZYSsBzpyO3YJhvZL3ETiCJ3OpZAfrbiqkGuXQnZpAe5Vsnz5dyQn3gQTrT0y
zgMX+SeJbL44dpXg3bhPtzO9eRUZB3b/GuPJzDKbG7oeokrB5f6Q
-----END CERTIFICATE-----
